target datalayout = "e-m:e-p270:32:32-p271:32:32-p272:64:64-i64:64-i128:128-f80:128-n8:16:32:64-S128"
target triple = "x86_64-pc-linux-gnu"

%struct.dt_lib_module_t = type { %struct.dt_action_t, ptr, ptr, ptr, ptr, ptr, ptr, ptr, ptr, ptr, ptr, ptr, ptr, ptr, ptr, ptr, ptr, ptr, ptr, ptr, ptr, ptr, ptr, ptr, ptr, ptr, ptr, ptr, ptr, ptr, ptr, [128 x i8], ptr, ptr, i32, ptr, ptr, ptr, i32 }
%struct.dt_action_t = type { i32, ptr, ptr, ptr, ptr, ptr }
%struct.dt_lib_tagging_t = type { [1024 x i8], ptr, ptr, ptr, ptr, ptr, ptr, ptr, ptr, ptr, ptr, ptr, ptr, ptr, ptr, ptr, ptr, ptr, ptr, ptr, ptr, ptr, i32, i32, i32, i32, i32, ptr, ptr, %struct.anon, i32 }
%struct.anon = type { ptr, ptr, ptr, i32, i32, i32, i32, i32 }
%struct._GtkTreeIter = type { i32, ptr, ptr, ptr }

; Function Attrs: nounwind uwtable
define internal void @_detach_selected_tag(ptr noundef %0, ptr noundef %1) #0 {
  %3 = alloca ptr, align 8
  %4 = alloca ptr, align 8
  %5 = alloca ptr, align 8
  %6 = alloca %struct._GtkTreeIter, align 8
  %7 = alloca ptr, align 8
  %8 = alloca ptr, align 8
  %9 = alloca i32, align 4
  %10 = alloca i32, align 4
  %11 = alloca ptr, align 8
  %12 = alloca ptr, align 8
  %13 = alloca ptr, align 8
  %14 = alloca ptr, align 8
  %15 = alloca i32, align 4
  %16 = alloca i32, align 4
  %17 = alloca i32, align 4
  %18 = alloca ptr, align 8
  store ptr %0, ptr %3, align 8, !tbaa !35
  store ptr %1, ptr %4, align 8, !tbaa !6
  call void @llvm.lifetime.start.p0(i64 8, ptr %5) #11
  %19 = load ptr, ptr %4, align 8, !tbaa !6
  %20 = getelementptr inbounds nuw %struct.dt_lib_module_t, ptr %19, i32 0, i32 30
  %21 = load ptr, ptr %20, align 8, !tbaa !11
  store ptr %21, ptr %5, align 8, !tbaa !19
  call void @llvm.lifetime.start.p0(i64 32, ptr %6) #11
  call void @llvm.lifetime.start.p0(i64 8, ptr %7) #11
  store ptr null, ptr %7, align 8, !tbaa !36
  call void @llvm.lifetime.start.p0(i64 8, ptr %8) #11
  %22 = load ptr, ptr %3, align 8, !tbaa !35
  %23 = call ptr @gtk_tree_view_get_selection(ptr noundef %22)
  store ptr %23, ptr %8, align 8, !tbaa !59
  %24 = load ptr, ptr %8, align 8, !tbaa !59
  %25 = call i32 @gtk_tree_selection_get_selected(ptr noundef %24, ptr noundef %7, ptr noundef %6)
  %26 = icmp ne i32 %25, 0
  br i1 %26, label %28, label %27

27:                                               ; preds = %2
  store i32 1, ptr %9, align 4
  br label %131

28:                                               ; preds = %2
  call void @llvm.lifetime.start.p0(i64 4, ptr %10) #11
  %29 = load ptr, ptr %7, align 8, !tbaa !36
  call void (ptr, ptr, ...) @gtk_tree_model_get(ptr noundef %29, ptr noundef %6, i32 noundef 1, ptr noundef %10, i32 noundef -1)
  %30 = load i32, ptr %10, align 4, !tbaa !31
  %31 = icmp ule i32 %30, 0
  br i1 %31, label %32, label %33

32:                                               ; preds = %28
  store i32 1, ptr %9, align 4
  br label %130

33:                                               ; preds = %28
  call void @llvm.lifetime.start.p0(i64 8, ptr %11) #11
  %34 = call ptr @dt_act_on_get_images(i32 noundef 0, i32 noundef 1, i32 noundef 0)
  store ptr %34, ptr %11, align 8, !tbaa !32
  %35 = load ptr, ptr %11, align 8, !tbaa !32
  %36 = icmp ne ptr %35, null
  br i1 %36, label %38, label %37

37:                                               ; preds = %33
  store i32 1, ptr %9, align 4
  br label %129

38:                                               ; preds = %33
  call void @llvm.lifetime.start.p0(i64 8, ptr %12) #11
  %39 = load ptr, ptr %11, align 8, !tbaa !32
  %40 = load i32, ptr %10, align 4, !tbaa !31
  %41 = call ptr @dt_tag_get_images_from_list(ptr noundef %39, i32 noundef %40)
  store ptr %41, ptr %12, align 8, !tbaa !32
  %42 = load ptr, ptr %12, align 8, !tbaa !32
  %43 = icmp ne ptr %42, null
  br i1 %43, label %44, label %127

44:                                               ; preds = %38
  call void (...) @dt_gui_cursor_set_busy()
  call void @llvm.lifetime.start.p0(i64 8, ptr %13) #11
  %45 = load ptr, ptr %7, align 8, !tbaa !36
  %46 = call ptr @gtk_tree_model_get_path(ptr noundef %45, ptr noundef %6)
  store ptr %46, ptr %13, align 8, !tbaa !138
  call void @llvm.lifetime.start.p0(i64 8, ptr %14) #11
  %47 = load ptr, ptr %13, align 8, !tbaa !138
  %48 = call ptr @gtk_tree_path_get_indices(ptr noundef %47)
  store ptr %48, ptr %14, align 8, !tbaa !63
  call void @llvm.lifetime.start.p0(i64 4, ptr %15) #11
  %49 = load ptr, ptr %14, align 8, !tbaa !63
  %50 = getelementptr inbounds i32, ptr %49, i64 0
  %51 = load i32, ptr %50, align 4, !tbaa !31
  store i32 %51, ptr %15, align 4, !tbaa !31
  %52 = load ptr, ptr %13, align 8, !tbaa !138
  call void @gtk_tree_path_free(ptr noundef %52)
  call void @llvm.lifetime.start.p0(i64 4, ptr %16) #11
  %53 = load i32, ptr %10, align 4, !tbaa !31
  %54 = load ptr, ptr %12, align 8, !tbaa !32
  %55 = call i32 @dt_tag_detach_images(i32 noundef %53, ptr noundef %54, i32 noundef 1)
  store i32 %55, ptr %16, align 4, !tbaa !31
  %56 = load ptr, ptr %4, align 8, !tbaa !6
  call void @_init_treeview(ptr noundef %56, i32 noundef 0)
  %57 = load i32, ptr %15, align 4, !tbaa !31
  %58 = load ptr, ptr %3, align 8, !tbaa !35
  %59 = call i32 @_select_next_user_attached_tag(i32 noundef %57, ptr noundef %58)
  %60 = icmp ne i32 %59, 0
  br i1 %60, label %67, label %61

61:                                               ; preds = %44
  %62 = load ptr, ptr %5, align 8, !tbaa !19
  %63 = getelementptr inbounds nuw %struct.dt_lib_tagging_t, ptr %62, i32 0, i32 1
  %64 = load ptr, ptr %63, align 8, !tbaa !103
  %65 = call i64 @gtk_widget_get_type() #12
  %66 = call ptr @g_type_check_instance_cast(ptr noundef %64, i64 noundef %65)
  call void @gtk_widget_grab_focus(ptr noundef %66)
  br label %67

67:                                               ; preds = %61, %44
  %68 = load ptr, ptr %5, align 8, !tbaa !19
  %69 = getelementptr inbounds nuw %struct.dt_lib_tagging_t, ptr %68, i32 0, i32 22
  %70 = load i32, ptr %69, align 8, !tbaa !38
  %71 = icmp ne i32 %70, 0
  br i1 %71, label %77, label %72

72:                                               ; preds = %67
  %73 = load ptr, ptr %5, align 8, !tbaa !19
  %74 = getelementptr inbounds nuw %struct.dt_lib_tagging_t, ptr %73, i32 0, i32 23
  %75 = load i32, ptr %74, align 4, !tbaa !39
  %76 = icmp ne i32 %75, 0
  br i1 %76, label %117, label %77

77:                                               ; preds = %72, %67
  call void @llvm.lifetime.start.p0(i64 4, ptr %17) #11
  %78 = load i32, ptr %10, align 4, !tbaa !31
  %79 = call i32 @dt_tag_images_count(i32 noundef %78)
  store i32 %79, ptr %17, align 4, !tbaa !31
  %80 = load ptr, ptr %5, align 8, !tbaa !19
  %81 = getelementptr inbounds nuw %struct.dt_lib_tagging_t, ptr %80, i32 0, i32 4
  %82 = load ptr, ptr %81, align 8, !tbaa !40
  %83 = call ptr @gtk_tree_view_get_model(ptr noundef %82)
  store ptr %83, ptr %7, align 8, !tbaa !36
  call void @llvm.lifetime.start.p0(i64 8, ptr %18) #11
  %84 = load ptr, ptr %7, align 8, !tbaa !36
  %85 = call i64 @gtk_tree_model_filter_get_type() #12
  %86 = call ptr @g_type_check_instance_cast(ptr noundef %84, i64 noundef %85)
  %87 = call ptr @gtk_tree_model_filter_get_model(ptr noundef %86)
  store ptr %87, ptr %18, align 8, !tbaa !36
  %88 = load ptr, ptr %18, align 8, !tbaa !36
  %89 = call i32 @gtk_tree_model_get_iter_first(ptr noundef %88, ptr noundef %6)
  %90 = icmp ne i32 %89, 0
  br i1 %90, label %91, label %116

91:                                               ; preds = %77
  %92 = load ptr, ptr %18, align 8, !tbaa !36
  %93 = load i32, ptr %10, align 4, !tbaa !31
  %94 = call i32 @_find_tag_iter_tagid(ptr noundef %92, ptr noundef %6, i32 noundef %93)
  %95 = icmp ne i32 %94, 0
  br i1 %95, label %96, label %115

96:                                               ; preds = %91
  %97 = load ptr, ptr %5, align 8, !tbaa !19
  %98 = getelementptr inbounds nuw %struct.dt_lib_tagging_t, ptr %97, i32 0, i32 22
  %99 = load i32, ptr %98, align 8, !tbaa !38
  %100 = icmp ne i32 %99, 0
  br i1 %100, label %101, label %109

101:                                              ; preds = %96
  %102 = load ptr, ptr %18, align 8, !tbaa !36
  %103 = call i64 @gtk_tree_store_get_type() #12
  %104 = call ptr @g_type_check_instance_cast(ptr noundef %102, i64 noundef %103)
  %105 = load i32, ptr %17, align 4, !tbaa !31
  call void (ptr, ptr, ...) @gtk_tree_store_set(ptr noundef %104, ptr noundef %6, i32 noundef 4, i32 noundef %105, i32 noundef 5, i32 noundef 0, i32 noundef -1)
  %106 = load ptr, ptr %18, align 8, !tbaa !36
  %107 = call i64 @gtk_tree_model_get_type() #12
  %108 = call ptr @g_type_check_instance_cast(ptr noundef %106, i64 noundef %107)
  call void @_calculate_sel_on_tree(ptr noundef %108, ptr noundef %6)
  br label %114

109:                                              ; preds = %96
  %110 = load ptr, ptr %18, align 8, !tbaa !36
  %111 = call i64 @gtk_list_store_get_type() #12
  %112 = call ptr @g_type_check_instance_cast(ptr noundef %110, i64 noundef %111)
  %113 = load i32, ptr %17, align 4, !tbaa !31
  call void (ptr, ptr, ...) @gtk_list_store_set(ptr noundef %112, ptr noundef %6, i32 noundef 4, i32 noundef %113, i32 noundef 5, i32 noundef 0, i32 noundef -1)
  br label %114

114:                                              ; preds = %109, %101
  br label %115

115:                                              ; preds = %114, %91
  br label %116

116:                                              ; preds = %115, %77
  call void @llvm.lifetime.end.p0(i64 8, ptr %18) #11
  call void @llvm.lifetime.end.p0(i64 4, ptr %17) #11
  br label %119

117:                                              ; preds = %72
  %118 = load ptr, ptr %4, align 8, !tbaa !6
  call void @_init_treeview(ptr noundef %118, i32 noundef 1)
  br label %119

119:                                              ; preds = %117, %116
  %120 = load i32, ptr %16, align 4, !tbaa !31
  %121 = icmp ne i32 %120, 0
  br i1 %121, label %122, label %125

122:                                              ; preds = %119
  %123 = load ptr, ptr %4, align 8, !tbaa !6
  call void @_raise_signal_tag_changed(ptr noundef %123)
  %124 = load ptr, ptr %12, align 8, !tbaa !32
  call void @dt_image_synch_xmps(ptr noundef %124)
  br label %125

125:                                              ; preds = %122, %119
  %126 = load ptr, ptr %12, align 8, !tbaa !32
  call void @g_list_free(ptr noundef %126)
  call void (...) @dt_gui_cursor_clear_busy()
  call void @llvm.lifetime.end.p0(i64 4, ptr %16) #11
  call void @llvm.lifetime.end.p0(i64 4, ptr %15) #11
  call void @llvm.lifetime.end.p0(i64 8, ptr %14) #11
  call void @llvm.lifetime.end.p0(i64 8, ptr %13) #11
  br label %127

127:                                              ; preds = %125, %38
  %128 = load ptr, ptr %11, align 8, !tbaa !32
  call void @g_list_free(ptr noundef %128)
  call void @llvm.lifetime.end.p0(i64 8, ptr %12) #11
  store i32 0, ptr %9, align 4
  br label %129

129:                                              ; preds = %127, %37
  call void @llvm.lifetime.end.p0(i64 8, ptr %11) #11
  br label %130

130:                                              ; preds = %129, %32
  call void @llvm.lifetime.end.p0(i64 4, ptr %10) #11
  br label %131

131:                                              ; preds = %130, %27
  call void @llvm.lifetime.end.p0(i64 8, ptr %8) #11
  call void @llvm.lifetime.end.p0(i64 8, ptr %7) #11
  call void @llvm.lifetime.end.p0(i64 32, ptr %6) #11
  call void @llvm.lifetime.end.p0(i64 8, ptr %5) #11
  %132 = load i32, ptr %9, align 4
  switch i32 %132, label %134 [
    i32 0, label %133
    i32 1, label %133
  ]

133:                                              ; preds = %131, %131
  ret void

134:                                              ; preds = %131
  unreachable
}