; Function Attrs: nounwind uwtable
define internal fastcc void @_detach_selected_tag(ptr noundef %0, ptr noundef %1) unnamed_addr #1 {
  %3 = alloca %struct._GtkTreeIter, align 8
  %4 = alloca ptr, align 8
  %5 = alloca i32, align 4
  %6 = getelementptr inbounds nuw i8, ptr %1, i64 280
  %7 = load ptr, ptr %6, align 8, !tbaa !6
  call void @llvm.lifetime.start.p0(i64 32, ptr nonnull %3) #16
  call void @llvm.lifetime.start.p0(i64 8, ptr nonnull %4) #16
  store ptr null, ptr %4, align 8, !tbaa !29
  %8 = tail call ptr @gtk_tree_view_get_selection(ptr noundef %0) #16
  %9 = call i32 @gtk_tree_selection_get_selected(ptr noundef %8, ptr noundef nonnull %4, ptr noundef nonnull %3) #16
  %.not = icmp eq i32 %9, 0
  br i1 %.not, label %67, label %10

10:                                               ; preds = %2
  call void @llvm.lifetime.start.p0(i64 4, ptr nonnull %5) #16
  %11 = load ptr, ptr %4, align 8, !tbaa !29
  call void (ptr, ptr, ...) @gtk_tree_model_get(ptr noundef %11, ptr noundef nonnull %3, i32 noundef 1, ptr noundef nonnull %5, i32 noundef -1) #16
  %12 = load i32, ptr %5, align 4, !tbaa !46
  %13 = icmp eq i32 %12, 0
  br i1 %13, label %66, label %14

14:                                               ; preds = %10
  %15 = call ptr @dt_act_on_get_images(i32 noundef 0, i32 noundef 1, i32 noundef 0) #16
  %.not31 = icmp eq ptr %15, null
  br i1 %.not31, label %66, label %16

16:                                               ; preds = %14
  %17 = load i32, ptr %5, align 4, !tbaa !46
  %18 = call ptr @dt_tag_get_images_from_list(ptr noundef nonnull %15, i32 noundef %17) #16
  %.not32 = icmp eq ptr %18, null
  br i1 %.not32, label %65, label %19

19:                                               ; preds = %16
  call void (...) @dt_gui_cursor_set_busy() #16
  %20 = load ptr, ptr %4, align 8, !tbaa !29
  %21 = call ptr @gtk_tree_model_get_path(ptr noundef %20, ptr noundef nonnull %3) #16
  %22 = call ptr @gtk_tree_path_get_indices(ptr noundef %21) #16
  %23 = load i32, ptr %22, align 4, !tbaa !46
  call void @gtk_tree_path_free(ptr noundef %21) #16
  %24 = load i32, ptr %5, align 4, !tbaa !46
  %25 = call i32 @dt_tag_detach_images(i32 noundef %24, ptr noundef nonnull %18, i32 noundef 1) #16
  call fastcc void @_init_treeview(ptr noundef nonnull %1, i32 noundef 0)
  %26 = call fastcc i32 @_select_next_user_attached_tag(i32 noundef %23, ptr noundef %0)
  %.not33 = icmp eq i32 %26, 0
  br i1 %.not33, label %27, label %32

27:                                               ; preds = %19
  %28 = getelementptr inbounds nuw i8, ptr %7, i64 1024
  %29 = load ptr, ptr %28, align 8, !tbaa !95
  %30 = tail call i64 @gtk_widget_get_type() #17
  %31 = call ptr @g_type_check_instance_cast(ptr noundef %29, i64 noundef %30) #16
  call void @gtk_widget_grab_focus(ptr noundef %31) #16
  br label %32

32:                                               ; preds = %27, %19
  %33 = getelementptr inbounds nuw i8, ptr %7, i64 1192
  %34 = load i32, ptr %33, align 8, !tbaa !36
  %.not34 = icmp eq i32 %34, 0
  br i1 %.not34, label %35, label %38

35:                                               ; preds = %32
  %36 = getelementptr inbounds nuw i8, ptr %7, i64 1196
  %37 = load i32, ptr %36, align 4, !tbaa !37
  %.not35 = icmp eq i32 %37, 0
  br i1 %.not35, label %38, label %61

38:                                               ; preds = %35, %32
  %39 = load i32, ptr %5, align 4, !tbaa !46
  %40 = call i32 @dt_tag_images_count(i32 noundef %39) #16
  %41 = getelementptr inbounds nuw i8, ptr %7, i64 1048
  %42 = load ptr, ptr %41, align 8, !tbaa !27
  %43 = call ptr @gtk_tree_view_get_model(ptr noundef %42) #16
  store ptr %43, ptr %4, align 8, !tbaa !29
  %44 = tail call i64 @gtk_tree_model_filter_get_type() #17
  %45 = call ptr @g_type_check_instance_cast(ptr noundef %43, i64 noundef %44) #16
  %46 = call ptr @gtk_tree_model_filter_get_model(ptr noundef %45) #16
  %47 = call i32 @gtk_tree_model_get_iter_first(ptr noundef %46, ptr noundef nonnull %3) #16
  %.not36 = icmp eq i32 %47, 0
  br i1 %.not36, label %62, label %48

48:                                               ; preds = %38
  %49 = load i32, ptr %5, align 4, !tbaa !46
  %50 = call fastcc i32 @_find_tag_iter_tagid(ptr noundef %46, ptr noundef %3, i32 noundef %49)
  %.not37 = icmp eq i32 %50, 0
  br i1 %.not37, label %62, label %51

51:                                               ; preds = %48
  %52 = load i32, ptr %33, align 8, !tbaa !36
  %.not38 = icmp eq i32 %52, 0
  br i1 %.not38, label %58, label %53

53:                                               ; preds = %51
  %54 = tail call i64 @gtk_tree_store_get_type() #17
  %55 = call ptr @g_type_check_instance_cast(ptr noundef %46, i64 noundef %54) #16
  call void (ptr, ptr, ...) @gtk_tree_store_set(ptr noundef %55, ptr noundef nonnull %3, i32 noundef 4, i32 noundef %40, i32 noundef 5, i32 noundef 0, i32 noundef -1) #16
  %56 = tail call i64 @gtk_tree_model_get_type() #17
  %57 = call ptr @g_type_check_instance_cast(ptr noundef %46, i64 noundef %56) #16
  call fastcc void @_calculate_sel_on_tree(ptr noundef %57, ptr noundef %3)
  br label %62

58:                                               ; preds = %51
  %59 = tail call i64 @gtk_list_store_get_type() #17
  %60 = call ptr @g_type_check_instance_cast(ptr noundef %46, i64 noundef %59) #16
  call void (ptr, ptr, ...) @gtk_list_store_set(ptr noundef %60, ptr noundef nonnull %3, i32 noundef 4, i32 noundef %40, i32 noundef 5, i32 noundef 0, i32 noundef -1) #16
  br label %62

61:                                               ; preds = %35
  call fastcc void @_init_treeview(ptr noundef nonnull %1, i32 noundef 1)
  br label %62

62:                                               ; preds = %38, %53, %58, %48, %61
  %.not39 = icmp eq i32 %25, 0
  br i1 %.not39, label %64, label %63

63:                                               ; preds = %62
  call fastcc void @_raise_signal_tag_changed(ptr noundef nonnull %1)
  call void @dt_image_synch_xmps(ptr noundef nonnull %18) #16
  br label %64

64:                                               ; preds = %63, %62
  call void @g_list_free(ptr noundef nonnull %18) #16
  call void (...) @dt_gui_cursor_clear_busy() #16
  br label %65

65:                                               ; preds = %64, %16
  call void @g_list_free(ptr noundef nonnull %15) #16
  br label %66

66:                                               ; preds = %65, %14, %10
  call void @llvm.lifetime.end.p0(i64 4, ptr nonnull %5) #16
  br label %67

67:                                               ; preds = %2, %66
  call void @llvm.lifetime.end.p0(i64 8, ptr nonnull %4) #16
  call void @llvm.lifetime.end.p0(i64 32, ptr nonnull %3) #16
  ret void
}